Certificate:
    Data:
        Version: 1 (0x0)
        Serial Number: 0 (0x0)
    Signature Algorithm: sha256WithRSAEncryption
        Issuer: C=DE, L=Munich, O=maurus.networks GmbH, OU=Internet Server CA, CN=maurus.networks Internet Server CA/emailAddress=ca@maurus.net/unstructuredName=maurus.networks Internet Server CA
        Validity
            Not Before: Sep 11 08:36:30 2015 GMT
            Not After : Sep  6 08:36:30 2035 GMT
        Subject: C=DE, L=Munich, O=maurus.networks GmbH, OU=Internet Server CA, CN=maurus.networks Internet Server CA/emailAddress=ca@maurus.net/unstructuredName=maurus.networks Internet Server CA
        Subject Public Key Info:
            Public Key Algorithm: rsaEncryption
                Public-Key: (4096 bit)
                Modulus:
                    00:b7:7a:91:bf:65:a9:30:85:cf:ca:10:63:af:d9:
                    d0:b1:a7:2e:f3:d3:24:59:25:35:80:44:74:a6:35:
                    14:a1:43:69:7f:5a:bf:22:91:1d:c3:7c:02:a1:8d:
                    0a:60:56:fe:1e:72:5b:c4:e0:92:93:d2:e7:6d:cb:
                    a1:a3:62:fd:32:ab:8e:53:7b:1d:ea:18:9e:d9:e5:
                    60:47:bb:34:ec:8e:81:39:a0:11:9d:fb:96:44:32:
                    36:67:63:86:da:22:03:30:b5:56:25:b7:4d:57:82:
                    f4:8e:a7:1f:e3:e0:4c:7a:cf:4c:a5:e3:29:f7:5f:
                    af:f1:08:cd:f6:7b:50:44:a0:46:28:ad:2c:56:f0:
                    5f:7c:f4:f2:9b:37:9b:a6:81:f2:44:71:d5:f7:ed:
                    53:77:0c:f5:7d:02:19:8e:f5:a4:4b:f4:68:18:4b:
                    f2:6f:e2:3d:dc:c2:1c:9a:e4:43:7a:03:aa:c6:85:
                    b6:97:cf:17:a7:b7:ca:ea:d9:be:0c:fe:3c:82:aa:
                    9c:22:10:19:27:76:5a:57:8e:63:52:e3:50:fd:d6:
                    e5:fb:ec:b5:73:02:88:4a:d8:3d:f1:43:2a:93:cc:
                    d5:95:83:e3:30:4d:fc:3b:0e:79:7d:fe:7b:d9:3f:
                    ba:1f:3e:5d:bf:85:1d:86:09:9d:1e:33:b3:b0:6c:
                    7f:04:96:83:f1:bc:84:2f:83:37:a0:6f:61:20:6f:
                    63:96:c8:f8:19:c0:cc:55:f0:08:3f:b9:f2:0b:8f:
                    ce:52:91:f7:b6:79:0d:31:d9:60:79:ee:bd:98:b7:
                    1d:da:a4:8e:96:24:e3:90:a9:14:65:bc:30:72:07:
                    73:41:db:0e:51:56:09:0d:8a:76:67:31:2d:86:dc:
                    f7:e8:3e:27:52:5c:f0:e0:58:81:11:be:06:3e:58:
                    84:dc:5e:65:4a:65:8e:35:7b:18:35:6a:16:3c:06:
                    83:9f:70:c2:74:ad:25:98:62:ba:f3:0f:fa:84:50:
                    ef:d4:ca:de:70:2f:07:93:fb:08:ed:a3:6d:07:11:
                    75:12:9d:04:68:2f:4e:16:6f:6c:29:05:de:02:e9:
                    5d:a9:86:9b:eb:bf:ac:b0:b8:7d:a4:e9:df:36:7c:
                    ed:13:60:e4:f8:22:c0:33:9b:d9:ac:d8:49:25:02:
                    57:0b:f8:d8:80:33:2c:28:59:b0:54:c1:bc:57:a0:
                    a8:c0:98:ee:1f:cf:e2:ac:f9:00:f6:ce:06:b3:ee:
                    25:87:df:93:ad:ba:bb:13:1c:32:e1:bd:d1:7a:5a:
                    79:f8:6a:b2:75:84:9a:4f:d9:55:26:6f:07:a1:3e:
                    d9:70:11:a4:77:07:f0:43:2b:c1:1b:9d:50:4f:34:
                    ba:f5:85
                Exponent: 65537 (0x10001)
    Signature Algorithm: sha256WithRSAEncryption
         5e:4d:e3:49:33:e9:11:6c:dc:05:f6:d9:90:f5:48:0e:af:7e:
         4c:74:10:da:2d:a1:9a:7d:fe:7a:59:52:9f:8c:ba:b2:1f:4e:
         90:ab:7c:a4:e4:f0:b6:51:94:24:55:97:06:51:02:49:a0:ea:
         68:aa:4a:fd:14:9a:7a:24:c0:e4:2d:e8:bf:da:8b:af:e0:6e:
         9e:a1:9b:8c:6c:65:c8:0c:74:20:0f:e0:3c:cc:95:5b:ec:b4:
         e1:34:9e:d7:47:0b:fe:2c:33:1a:75:f6:6d:b2:2f:3e:14:ea:
         d6:60:c4:eb:17:b1:f1:a1:bb:b9:8f:05:af:08:c5:60:5a:81:
         0c:0a:e2:f1:82:45:9c:80:6e:96:2f:f8:b6:d3:56:22:8c:7c:
         5c:6c:d9:78:c8:6f:96:6f:28:e1:ec:cb:11:f9:ef:06:9f:06:
         59:7d:5d:66:23:ff:a4:df:96:45:40:a5:2e:1b:7e:04:ff:13:
         be:d5:0a:d4:b1:7a:a0:01:2f:9d:52:e4:b6:3b:fa:44:39:8c:
         23:2e:74:d4:ec:80:62:f6:65:1c:43:a9:9c:4d:a1:e9:e9:62:
         4b:68:ca:20:57:0b:e0:47:c0:ef:2e:76:d2:ec:53:be:73:88:
         5c:48:17:18:81:8c:62:19:f2:e4:0e:9d:be:12:87:a6:12:0e:
         a1:0c:9b:d6:26:0e:3c:74:0e:20:34:7e:e3:05:5f:ce:1a:7e:
         83:46:27:13:a7:b3:7e:55:41:b0:a6:11:da:2e:8d:75:25:b7:
         e7:b8:8f:5c:b4:02:a6:b4:3c:fd:0a:66:38:84:ce:ba:96:f6:
         5e:4e:5f:e3:1a:16:b9:ac:b9:a7:00:59:f3:5c:6e:3c:1d:b3:
         24:13:6c:5e:b6:ae:2c:af:bc:31:81:90:56:51:3c:68:da:93:
         d7:d7:91:f9:f3:4d:7c:66:5a:a8:89:ed:11:d6:5f:1b:c8:8b:
         76:f2:e8:d2:53:63:cd:13:2b:d3:96:83:11:0b:96:2e:73:11:
         b2:e2:87:49:97:5d:b4:67:62:6e:b7:2a:58:5a:ba:39:cf:ae:
         48:d2:5c:fa:35:44:88:b9:83:8b:14:12:4c:63:e2:20:42:96:
         a7:9e:25:cb:d0:18:df:17:17:e7:70:55:85:c0:dc:9c:1a:9c:
         7a:13:3c:e6:7a:ef:4b:3d:fa:92:90:b4:06:22:94:07:7b:1f:
         64:92:c7:3a:e1:c5:90:25:ab:a8:ba:93:5d:e6:15:6e:38:5b:
         e6:be:6f:82:3a:15:b2:54:4a:6e:d9:89:f9:96:cb:dd:cc:f3:
         ac:a5:2e:e3:30:51:5f:b5:f4:db:00:7f:9a:1c:76:95:f2:09:
         e2:7b:df:3a:6a:03:f9:60
-----BEGIN CERTIFICATE-----
MIIGJjCCBA4CAQAwDQYJKoZIhvcNAQELBQAwgdgxCzAJBgNVBAYTAkRFMQ8wDQYD
VQQHDAZNdW5pY2gxHTAbBgNVBAoMFG1hdXJ1cy5uZXR3b3JrcyBHbWJIMRswGQYD
VQQLDBJJbnRlcm5ldCBTZXJ2ZXIgQ0ExKzApBgNVBAMMIm1hdXJ1cy5uZXR3b3Jr
cyBJbnRlcm5ldCBTZXJ2ZXIgQ0ExHDAaBgkqhkiG9w0BCQEWDWNhQG1hdXJ1cy5u
ZXQxMTAvBgkqhkiG9w0BCQIMIm1hdXJ1cy5uZXR3b3JrcyBJbnRlcm5ldCBTZXJ2
ZXIgQ0EwHhcNMTUwOTExMDgzNjMwWhcNMzUwOTA2MDgzNjMwWjCB2DELMAkGA1UE
BhMCREUxDzANBgNVBAcMBk11bmljaDEdMBsGA1UECgwUbWF1cnVzLm5ldHdvcmtz
IEdtYkgxGzAZBgNVBAsMEkludGVybmV0IFNlcnZlciBDQTErMCkGA1UEAwwibWF1
cnVzLm5ldHdvcmtzIEludGVybmV0IFNlcnZlciBDQTEcMBoGCSqGSIb3DQEJARYN
Y2FAbWF1cnVzLm5ldDExMC8GCSqGSIb3DQEJAgwibWF1cnVzLm5ldHdvcmtzIElu
dGVybmV0IFNlcnZlciBDQTCCAiIwDQYJKoZIhvcNAQEBBQADggIPADCCAgoCggIB
ALd6kb9lqTCFz8oQY6/Z0LGnLvPTJFklNYBEdKY1FKFDaX9avyKRHcN8AqGNCmBW
/h5yW8TgkpPS523LoaNi/TKrjlN7HeoYntnlYEe7NOyOgTmgEZ37lkQyNmdjhtoi
AzC1ViW3TVeC9I6nH+PgTHrPTKXjKfdfr/EIzfZ7UESgRiitLFbwX3z08ps3m6aB
8kRx1fftU3cM9X0CGY71pEv0aBhL8m/iPdzCHJrkQ3oDqsaFtpfPF6e3yurZvgz+
PIKqnCIQGSd2WleOY1LjUP3W5fvstXMCiErYPfFDKpPM1ZWD4zBN/DsOeX3+e9k/
uh8+Xb+FHYYJnR4zs7BsfwSWg/G8hC+DN6BvYSBvY5bI+BnAzFXwCD+58guPzlKR
97Z5DTHZYHnuvZi3HdqkjpYk45CpFGW8MHIHc0HbDlFWCQ2KdmcxLYbc9+g+J1Jc
8OBYgRG+Bj5YhNxeZUpljjV7GDVqFjwGg59wwnStJZhiuvMP+oRQ79TK3nAvB5P7
CO2jbQcRdRKdBGgvThZvbCkF3gLpXamGm+u/rLC4faTp3zZ87RNg5PgiwDOb2azY
SSUCVwv42IAzLChZsFTBvFegqMCY7h/P4qz5APbOBrPuJYffk626uxMcMuG90Xpa
efhqsnWEmk/ZVSZvB6E+2XARpHcH8EMrwRudUE80uvWFAgMBAAEwDQYJKoZIhvcN
AQELBQADggIBAF5N40kz6RFs3AX22ZD1SA6vfkx0ENotoZp9/npZUp+MurIfTpCr
fKTk8LZRlCRVlwZRAkmg6miqSv0UmnokwOQt6L/ai6/gbp6hm4xsZcgMdCAP4DzM
lVvstOE0ntdHC/4sMxp19m2yLz4U6tZgxOsXsfGhu7mPBa8IxWBagQwK4vGCRZyA
bpYv+LbTViKMfFxs2XjIb5ZvKOHsyxH57wafBll9XWYj/6TflkVApS4bfgT/E77V
CtSxeqABL51S5LY7+kQ5jCMudNTsgGL2ZRxDqZxNoenpYktoyiBXC+BHwO8udtLs
U75ziFxIFxiBjGIZ8uQOnb4Sh6YSDqEMm9YmDjx0DiA0fuMFX84afoNGJxOns35V
QbCmEdoujXUlt+e4j1y0Aqa0PP0KZjiEzrqW9l5OX+MaFrmsuacAWfNcbjwdsyQT
bF62riyvvDGBkFZRPGjak9fXkfnzTXxmWqiJ7RHWXxvIi3by6NJTY80TK9OWgxEL
li5zEbLih0mXXbRnYm63KlhaujnPrkjSXPo1RIi5g4sUEkxj4iBClqeeJcvQGN8X
F+dwVYXA3JwanHoTPOZ670s9+pKQtAYilAd7H2SSxzrhxZAlq6i6k13mFW44W+a+
b4I6FbJUSm7ZifmWy93M86ylLuMwUV+19NsAf5ocdpXyCeJ73zpqA/lg
-----END CERTIFICATE-----
